; Function Attrs: mustprogress uwtable
define noundef i32 @_ZNK6icu_7521RuleCharacterIterator8_currentEv(ptr nocapture noundef nonnull readonly align 8 dereferenceable(36) %this) local_unnamed_addr #2 align 2 {
entry:
  %buf = getelementptr inbounds i8, ptr %this, i64 24
  %0 = load ptr, ptr %buf, align 8
  %cmp.not = icmp eq ptr %0, null
  br i1 %cmp.not, label %if.else, label %if.then

if.then:                                          ; preds = %entry
  %bufPos = getelementptr inbounds i8, ptr %this, i64 32
  %1 = load i32, ptr %bufPos, align 8
  %call = tail call noundef i32 @_ZNK6icu_7513UnicodeString8char32AtEi(ptr noundef nonnull align 8 dereferenceable(64) %0, i32 noundef %1)
  br label %return

if.else:                                          ; preds = %entry
  %pos = getelementptr inbounds i8, ptr %this, i64 8
  %2 = load ptr, ptr %pos, align 8
  %index.i = getelementptr inbounds i8, ptr %2, i64 8
  %3 = load i32, ptr %index.i, align 8
  %4 = load ptr, ptr %this, align 8
  %fUnion.i.i = getelementptr inbounds i8, ptr %4, i64 8
  %5 = load i16, ptr %fUnion.i.i, align 8
  %cmp.i.i = icmp slt i16 %5, 0
  %6 = ashr i16 %5, 5
  %shr.i.i = sext i16 %6 to i32
  %fLength.i = getelementptr inbounds i8, ptr %4, i64 12
  %7 = load i32, ptr %fLength.i, align 4
  %cond.i = select i1 %cmp.i.i, i32 %7, i32 %shr.i.i
  %cmp5 = icmp slt i32 %3, %cond.i
  br i1 %cmp5, label %cond.true, label %return

cond.true:                                        ; preds = %if.else
  %call7 = tail call noundef i32 @_ZNK6icu_7513UnicodeString8char32AtEi(ptr noundef nonnull align 8 dereferenceable(64) %4, i32 noundef %3)
  br label %return

return:                                           ; preds = %cond.true, %if.else, %if.then
  %retval.0 = phi i32 [ %call, %if.then ], [ %call7, %cond.true ], [ -1, %if.else ]
  ret i32 %retval.0
}